target datalayout = "e-m:e-p270:32:32-p271:32:32-p272:64:64-i64:64-i128:128-f80:128-n8:16:32:64-S128"
target triple = "x86_64-pc-linux-gnu"

; Function Attrs: inlinehint mustprogress nounwind uwtable
define linkonce_odr hidden noundef double @_ZN19OpenColorIO_v2_5dev14GetHalfNormMinEv() #6 comdat {
  ret double 0x3F0FFFFFFF8F68F6
}

; Function Attrs: inlinehint mustprogress nounwind uwtable
define linkonce_odr hidden noundef double @_ZN19OpenColorIO_v2_5dev10GetHalfMaxEv() #6 comdat {
  ret double 6.550400e+04
}

; Function Attrs: mustprogress uwtable
define hidden noundef double @_ZN19OpenColorIO_v2_5dev15ClampToNormHalfEd(double noundef %0) #4 {
  %2 = alloca double, align 8
  %3 = alloca double, align 8
  store double %0, ptr %3, align 8, !tbaa !13
  %4 = load double, ptr %3, align 8, !tbaa !13
  %5 = call noundef double @_ZN19OpenColorIO_v2_5dev10GetHalfMaxEv()
  %6 = fneg double %5
  %7 = fcmp olt double %4, %6
  br i1 %7, label %8, label %11

8:                                                ; preds = %1
  %9 = call noundef double @_ZN19OpenColorIO_v2_5dev10GetHalfMaxEv()
  %10 = fneg double %9
  store double %10, ptr %2, align 8
  br label %29

11:                                               ; preds = %1
  %12 = load double, ptr %3, align 8, !tbaa !13
  %13 = call noundef double @_ZN19OpenColorIO_v2_5dev14GetHalfNormMinEv()
  %14 = fneg double %13
  %15 = fcmp ogt double %12, %14
  br i1 %15, label %16, label %21

16:                                               ; preds = %11
  %17 = load double, ptr %3, align 8, !tbaa !13
  %18 = call noundef double @_ZN19OpenColorIO_v2_5dev14GetHalfNormMinEv()
  %19 = fcmp olt double %17, %18
  br i1 %19, label %20, label %21

20:                                               ; preds = %16
  store double 0.000000e+00, ptr %2, align 8
  br label %29

21:                                               ; preds = %16, %11
  %22 = load double, ptr %3, align 8, !tbaa !13
  %23 = call noundef double @_ZN19OpenColorIO_v2_5dev10GetHalfMaxEv()
  %24 = fcmp ogt double %22, %23
  br i1 %24, label %25, label %27

25:                                               ; preds = %21
  %26 = call noundef double @_ZN19OpenColorIO_v2_5dev10GetHalfMaxEv()
  store double %26, ptr %2, align 8
  br label %29

27:                                               ; preds = %21
  %28 = load double, ptr %3, align 8, !tbaa !13
  store double %28, ptr %2, align 8
  br label %29

29:                                               ; preds = %27, %25, %20, %8
  %30 = load double, ptr %2, align 8
  ret double %30
}