; Function Attrs: mustprogress nofree norecurse nosync nounwind willreturn memory(none) uwtable
define hidden noundef double @_ZN19OpenColorIO_v2_5dev15ClampToNormHalfEd(double noundef %0) local_unnamed_addr #4 {
  %2 = fcmp olt double %0, -6.550400e+04
  br i1 %2, label %8, label %3

3:                                                ; preds = %1
  %4 = tail call double @llvm.fabs.f64(double %0)
  %or.cond = fcmp olt double %4, 0x3F0FFFFFFF8F68F6
  br i1 %or.cond, label %8, label %5

5:                                                ; preds = %3
  %6 = fcmp ogt double %0, 6.550400e+04
  br i1 %6, label %7, label %8

7:                                                ; preds = %5
  br label %8

8:                                                ; preds = %3, %1, %5, %7
  %.0 = phi double [ 6.550400e+04, %7 ], [ %0, %5 ], [ -6.550400e+04, %1 ], [ 0.000000e+00, %3 ]
  ret double %.0
}